	.file	"main.c"
	.option nopic
	.attribute arch, "rv32i2p1_zicsr2p0"
	.attribute unaligned_access, 0
	.attribute stack_align, 16
	.text
.Ltext0:
	.file 0 "/home/rur1k/FinalTapeout/FinalTapeout/C_Code" "src/main.c"
	.globl	i
	.section	.sbss,"aw",@nobits
	.align	2
	.type	i, @object
	.size	i, 4
i:
	.zero	4
	.text
	.align	2
	.globl	main
	.type	main, @function
main:
.LFB0:
	.file 1 "src/main.c"
	.loc 1 6 16
	.cfi_startproc
	addi	sp,sp,-16
	.cfi_def_cfa_offset 16
	sw	ra,12(sp)
	sw	s0,8(sp)
	.cfi_offset 1, -4
	.cfi_offset 8, -8
	addi	s0,sp,16
	.cfi_def_cfa 8, 0
.L2:
	.loc 1 8 14 discriminator 1
	lui	a5,%hi(i)
	lw	a5,%lo(i)(a5)
	addi	a4,a5,1
	.loc 1 8 11 discriminator 1
	lui	a5,%hi(i)
	sw	a4,%lo(i)(a5)
	j	.L2
	.cfi_endproc
.LFE0:
	.size	main, .-main
	.align	2
	.globl	vApplicationIdleHook
	.type	vApplicationIdleHook, @function
vApplicationIdleHook:
.LFB1:
	.loc 1 14 33
	.cfi_startproc
	addi	sp,sp,-16
	.cfi_def_cfa_offset 16
	sw	ra,12(sp)
	sw	s0,8(sp)
	.cfi_offset 1, -4
	.cfi_offset 8, -8
	addi	s0,sp,16
	.cfi_def_cfa 8, 0
	.loc 1 16 1
	nop
	lw	ra,12(sp)
	.cfi_restore 1
	lw	s0,8(sp)
	.cfi_restore 8
	.cfi_def_cfa 2, 16
	addi	sp,sp,16
	.cfi_def_cfa_offset 0
	jr	ra
	.cfi_endproc
.LFE1:
	.size	vApplicationIdleHook, .-vApplicationIdleHook
	.align	2
	.globl	vApplicationTickHook
	.type	vApplicationTickHook, @function
vApplicationTickHook:
.LFB2:
	.loc 1 18 33
	.cfi_startproc
	addi	sp,sp,-16
	.cfi_def_cfa_offset 16
	sw	ra,12(sp)
	sw	s0,8(sp)
	.cfi_offset 1, -4
	.cfi_offset 8, -8
	addi	s0,sp,16
	.cfi_def_cfa 8, 0
	.loc 1 20 1
	nop
	lw	ra,12(sp)
	.cfi_restore 1
	lw	s0,8(sp)
	.cfi_restore 8
	.cfi_def_cfa 2, 16
	addi	sp,sp,16
	.cfi_def_cfa_offset 0
	jr	ra
	.cfi_endproc
.LFE2:
	.size	vApplicationTickHook, .-vApplicationTickHook
	.align	2
	.globl	vApplicationStackOverflowHook
	.type	vApplicationStackOverflowHook, @function
vApplicationStackOverflowHook:
.LFB3:
	.loc 1 22 42
	.cfi_startproc
	addi	sp,sp,-16
	.cfi_def_cfa_offset 16
	sw	ra,12(sp)
	sw	s0,8(sp)
	.cfi_offset 1, -4
	.cfi_offset 8, -8
	addi	s0,sp,16
	.cfi_def_cfa 8, 0
	.loc 1 24 1
	nop
	lw	ra,12(sp)
	.cfi_restore 1
	lw	s0,8(sp)
	.cfi_restore 8
	.cfi_def_cfa 2, 16
	addi	sp,sp,16
	.cfi_def_cfa_offset 0
	jr	ra
	.cfi_endproc
.LFE3:
	.size	vApplicationStackOverflowHook, .-vApplicationStackOverflowHook
	.align	2
	.globl	vApplicationGetIdleTaskMemory
	.type	vApplicationGetIdleTaskMemory, @function
vApplicationGetIdleTaskMemory:
.LFB4:
	.loc 1 26 42
	.cfi_startproc
	addi	sp,sp,-16
	.cfi_def_cfa_offset 16
	sw	ra,12(sp)
	sw	s0,8(sp)
	.cfi_offset 1, -4
	.cfi_offset 8, -8
	addi	s0,sp,16
	.cfi_def_cfa 8, 0
	.loc 1 28 1
	nop
	lw	ra,12(sp)
	.cfi_restore 1
	lw	s0,8(sp)
	.cfi_restore 8
	.cfi_def_cfa 2, 16
	addi	sp,sp,16
	.cfi_def_cfa_offset 0
	jr	ra
	.cfi_endproc
.LFE4:
	.size	vApplicationGetIdleTaskMemory, .-vApplicationGetIdleTaskMemory
	.align	2
	.globl	vApplicationGetTimerTaskMemory
	.type	vApplicationGetTimerTaskMemory, @function
vApplicationGetTimerTaskMemory:
.LFB5:
	.loc 1 30 43
	.cfi_startproc
	addi	sp,sp,-16
	.cfi_def_cfa_offset 16
	sw	ra,12(sp)
	sw	s0,8(sp)
	.cfi_offset 1, -4
	.cfi_offset 8, -8
	addi	s0,sp,16
	.cfi_def_cfa 8, 0
	.loc 1 32 1
	nop
	lw	ra,12(sp)
	.cfi_restore 1
	lw	s0,8(sp)
	.cfi_restore 8
	.cfi_def_cfa 2, 16
	addi	sp,sp,16
	.cfi_def_cfa_offset 0
	jr	ra
	.cfi_endproc
.LFE5:
	.size	vApplicationGetTimerTaskMemory, .-vApplicationGetTimerTaskMemory
.Letext0:
	.section	.note.GNU-stack,"",@progbits
