	.file	"port.c"
	.option nopic
	.attribute arch, "rv32i2p1_zicsr2p0"
	.attribute unaligned_access, 0
	.attribute stack_align, 16
	.text
.Ltext0:
	.file 0 "/home/rur1k/FinalTapeout/FinalTapeout/C_Code" "FreeRTOS-Kernel/portable/GCC/RISC-V/port.c"
	.local	xISRStack
	.comm	xISRStack,2000,16
	.globl	xISRStackTop
	.section	.srodata,"a"
	.align	2
	.type	xISRStackTop, @object
	.size	xISRStackTop, 4
xISRStackTop:
	.word	xISRStack+1984
	.globl	ullNextTime
	.section	.sbss,"aw",@nobits
	.align	3
	.type	ullNextTime, @object
	.size	ullNextTime, 8
ullNextTime:
	.zero	8
	.globl	pullNextTime
	.section	.sdata,"aw"
	.align	2
	.type	pullNextTime, @object
	.size	pullNextTime, 4
pullNextTime:
	.word	ullNextTime
	.globl	uxTimerIncrementsForOneTick
	.section	.srodata
	.align	2
	.type	uxTimerIncrementsForOneTick, @object
	.size	uxTimerIncrementsForOneTick, 4
uxTimerIncrementsForOneTick:
	.word	250000
	.globl	ullMachineTimerCompareRegisterBase
	.align	2
	.type	ullMachineTimerCompareRegisterBase, @object
	.size	ullMachineTimerCompareRegisterBase, 4
ullMachineTimerCompareRegisterBase:
	.word	536873984
	.globl	pullMachineTimerCompareRegister
	.section	.sbss
	.align	2
	.type	pullMachineTimerCompareRegister, @object
	.size	pullMachineTimerCompareRegister, 4
pullMachineTimerCompareRegister:
	.zero	4
	.globl	xCriticalNesting
	.section	.sdata
	.align	2
	.type	xCriticalNesting, @object
	.size	xCriticalNesting, 4
xCriticalNesting:
	.word	-1431655766
	.globl	pxCriticalNesting
	.align	2
	.type	pxCriticalNesting, @object
	.size	pxCriticalNesting, 4
pxCriticalNesting:
	.word	xCriticalNesting
	.globl	xTaskReturnAddress
	.section	.sbss
	.align	2
	.type	xTaskReturnAddress, @object
	.size	xTaskReturnAddress, 4
xTaskReturnAddress:
	.zero	4
	.text
	.align	2
	.weak	vPortSetupTimerInterrupt
	.type	vPortSetupTimerInterrupt, @function
vPortSetupTimerInterrupt:
.LFB0:
	.file 1 "FreeRTOS-Kernel/portable/GCC/RISC-V/port.c"
	.loc 1 131 5
	.cfi_startproc
	addi	sp,sp,-48
	.cfi_def_cfa_offset 48
	sw	ra,44(sp)
	sw	s0,40(sp)
	.cfi_offset 1, -4
	.cfi_offset 8, -8
	addi	s0,sp,48
	.cfi_def_cfa 8, 0
	.loc 1 133 35
	li	t5,536875008
	addi	t5,t5,-1012
	sw	t5,-20(s0)
	.loc 1 134 35
	li	t5,536875008
	addi	t5,t5,-1016
	sw	t5,-24(s0)
	.loc 1 137 9
#APP
# 137 "FreeRTOS-Kernel/portable/GCC/RISC-V/port.c" 1
	csrr t5, mhartid
# 0 "" 2
#NO_APP
	sw	t5,-36(s0)
	.loc 1 139 117
	lw	t5,-36(s0)
	slli	t6,t5,3
	.loc 1 139 104
	li	t5,536875008
	addi	t5,t5,-1024
	add	t5,t6,t5
	.loc 1 139 43
	mv	t6,t5
	.loc 1 139 41
	lui	t5,%hi(pullMachineTimerCompareRegister)
	sw	t6,%lo(pullMachineTimerCompareRegister)(t5)
.L2:
	.loc 1 143 31
	lw	t5,-20(s0)
	lw	t5,0(t5)
	sw	t5,-28(s0)
	.loc 1 144 30
	lw	t5,-24(s0)
	lw	t5,0(t5)
	sw	t5,-32(s0)
	.loc 1 145 39 discriminator 1
	lw	t5,-20(s0)
	lw	t5,0(t5)
	.loc 1 145 36 discriminator 1
	lw	t6,-28(s0)
	bne	t6,t5,.L2
	.loc 1 147 23
	lw	t5,-28(s0)
	mv	t3,t5
	li	t4,0
	.loc 1 147 21
	lui	t5,%hi(ullNextTime)
	sw	t3,%lo(ullNextTime)(t5)
	sw	t4,%lo(ullNextTime+4)(t5)
	.loc 1 148 21
	lui	t3,%hi(ullNextTime)
	lw	t4,%lo(ullNextTime+4)(t3)
	lw	t3,%lo(ullNextTime)(t3)
	slli	t2,t3,0
	li	t1,0
	lui	t3,%hi(ullNextTime)
	sw	t1,%lo(ullNextTime)(t3)
	sw	t2,%lo(ullNextTime+4)(t3)
	.loc 1 149 24
	lw	t1,-32(s0)
	mv	a4,t1
	li	a5,0
	.loc 1 149 21
	lui	t1,%hi(ullNextTime)
	lw	t2,%lo(ullNextTime+4)(t1)
	lw	t1,%lo(ullNextTime)(t1)
	or	a6,a4,t1
	or	a7,a5,t2
	lui	a5,%hi(ullNextTime)
	sw	a6,%lo(ullNextTime)(a5)
	sw	a7,%lo(ullNextTime+4)(a5)
	.loc 1 150 24
	li	a5,249856
	addi	a5,a5,144
	mv	a0,a5
	li	a1,0
	.loc 1 150 21
	lui	a5,%hi(ullNextTime)
	lw	a6,%lo(ullNextTime)(a5)
	lw	a7,%lo(ullNextTime+4)(a5)
	add	a4,a0,a6
	mv	t1,a4
	sltu	t1,t1,a0
	add	a5,a1,a7
	add	a1,t1,a5
	mv	a5,a1
	lui	a1,%hi(ullNextTime)
	sw	a4,%lo(ullNextTime)(a1)
	sw	a5,%lo(ullNextTime+4)(a1)
	.loc 1 151 9
	lui	a5,%hi(pullMachineTimerCompareRegister)
	lw	a1,%lo(pullMachineTimerCompareRegister)(a5)
	.loc 1 151 42
	lui	a5,%hi(ullNextTime)
	lw	a4,%lo(ullNextTime)(a5)
	lw	a5,%lo(ullNextTime+4)(a5)
	sw	a4,0(a1)
	sw	a5,4(a1)
	.loc 1 154 24
	li	a5,249856
	addi	a5,a5,144
	mv	a2,a5
	li	a3,0
	.loc 1 154 21
	lui	a5,%hi(ullNextTime)
	lw	a0,%lo(ullNextTime)(a5)
	lw	a1,%lo(ullNextTime+4)(a5)
	add	a4,a2,a0
	mv	a6,a4
	sltu	a6,a6,a2
	add	a5,a3,a1
	add	a3,a6,a5
	mv	a5,a3
	lui	a3,%hi(ullNextTime)
	sw	a4,%lo(ullNextTime)(a3)
	sw	a5,%lo(ullNextTime+4)(a3)
	.loc 1 155 5
	nop
	lw	ra,44(sp)
	.cfi_restore 1
	lw	s0,40(sp)
	.cfi_restore 8
	.cfi_def_cfa 2, 48
	addi	sp,sp,48
	.cfi_def_cfa_offset 0
	jr	ra
	.cfi_endproc
.LFE0:
	.size	vPortSetupTimerInterrupt, .-vPortSetupTimerInterrupt
	.align	2
	.globl	xPortStartScheduler
	.type	xPortStartScheduler, @function
xPortStartScheduler:
.LFB1:
	.loc 1 161 1
	.cfi_startproc
	addi	sp,sp,-16
	.cfi_def_cfa_offset 16
	sw	ra,12(sp)
	sw	s0,8(sp)
	.cfi_offset 1, -4
	.cfi_offset 8, -8
	addi	s0,sp,16
	.cfi_def_cfa 8, 0
	.loc 1 182 5
	call	vPortSetupTimerInterrupt
	.loc 1 189 9
	li	a5,4096
	addi	a5,a5,-1920
#APP
# 189 "FreeRTOS-Kernel/portable/GCC/RISC-V/port.c" 1
	csrs mie, a5
# 0 "" 2
	.loc 1 193 5
#NO_APP
	call	xPortStartFirstTask
	.loc 1 197 12
	li	a5,0
	.loc 1 198 1
	mv	a0,a5
	lw	ra,12(sp)
	.cfi_restore 1
	lw	s0,8(sp)
	.cfi_restore 8
	.cfi_def_cfa 2, 16
	addi	sp,sp,16
	.cfi_def_cfa_offset 0
	jr	ra
	.cfi_endproc
.LFE1:
	.size	xPortStartScheduler, .-xPortStartScheduler
	.align	2
	.globl	vPortEndScheduler
	.type	vPortEndScheduler, @function
vPortEndScheduler:
.LFB2:
	.loc 1 202 1
	.cfi_startproc
	addi	sp,sp,-16
	.cfi_def_cfa_offset 16
	sw	ra,12(sp)
	sw	s0,8(sp)
	.cfi_offset 1, -4
	.cfi_offset 8, -8
	addi	s0,sp,16
	.cfi_def_cfa 8, 0
.L6:
	.loc 1 204 5
	nop
	j	.L6
	.cfi_endproc
.LFE2:
	.size	vPortEndScheduler, .-vPortEndScheduler
.Letext0:
	.file 2 "/opt/riscv/lib/gcc/riscv64-unknown-linux-gnu/14.2.0/include/stddef.h"
	.file 3 "/opt/riscv/lib/gcc/riscv64-unknown-linux-gnu/14.2.0/include/stdint-gcc.h"
	.file 4 "FreeRTOS-Kernel/portable/GCC/RISC-V/portmacro.h"
	.section	.note.GNU-stack,"",@progbits
